target datalayout = "e-m:e-p270:32:32-p271:32:32-p272:64:64-i64:64-i128:128-f80:128-n8:16:32:64-S128"
target triple = "x86_64-pc-linux-gnu"

%struct.SDL_Rect = type { i32, i32, i32, i32 }
%struct.SDL_VideoData = type { ptr, ptr, i32, ptr, i64, i32, ptr, i32, i64, i64, %struct.X11_ClipboardData, %struct.X11_ClipboardData, ptr, i64, %struct.X11_SettingsData, i8, %struct.anon.1, [256 x i32], i8, i8, i8, i64, i8, %struct.SDL_Point, i32, ptr, i32, i8, i32, %struct.anon.2, i8, i64, ptr, ptr, i8, i8, i8 }
%struct.X11_ClipboardData = type { ptr, ptr, ptr, i64, i32 }
%struct.X11_SettingsData = type { ptr }
%struct.anon.1 = type { i64, i64, i64, i64, i64, i64, i64, i64, i64, i64, i64, i64, i64, i64, i64, i64, i64, i64, i64, i64, i64, i64, i64, i64, i64, i64, i64, i64, i64, i64, i64, i64, i64, i64, i64, i64, i64, i64, i64, i64, i64, i64, i64, i64, i64, i64, i64, i64, i64, i64, i64, i64, i64 }
%struct.SDL_Point = type { i32, i32 }
%struct.anon.2 = type { ptr, i32, i32, i32, i16, i32, i32 }
%struct.XWindowAttributes = type { i32, i32, i32, i32, i32, i32, ptr, i64, i32, i32, i32, i32, i64, i64, i32, i64, i32, i32, i64, i64, i64, i32, ptr }
%struct.SDL_Window = type { i32, ptr, ptr, i32, i32, i32, i32, i32, i32, i32, i32, float, float, i32, i32, i64, i64, float, i8, i8, i32, i32, %struct.SDL_Rect, %struct.SDL_Rect, %struct.SDL_Rect, i8, i8, i8, %struct.SDL_DisplayMode, %struct.SDL_DisplayMode, %struct.SDL_HDROutputProperties, float, ptr, i8, i8, i8, i8, i8, i8, i8, i8, i8, i32, i32, i32, i32, %struct.SDL_Rect, i32, i8, %struct.SDL_Rect, i32, %struct.SDL_Rect, ptr, ptr, i32, float, i32, i32, ptr, ptr, ptr, ptr, ptr, ptr, ptr, ptr, ptr }
%struct.SDL_DisplayMode = type { i32, i32, i32, i32, float, float, i32, i32, ptr }
%struct.SDL_HDROutputProperties = type { float, float }
%struct.Screen = type { ptr, ptr, i64, i32, i32, i32, i32, i32, ptr, i32, ptr, ptr, i64, i64, i64, i32, i32, i32, i32, i64 }
%struct.SDL_WindowData = type { ptr, i64, ptr, i64, i8, %struct.XShmSegmentInfo, ptr, ptr, ptr, i8, i32, i32, i32, i32, i8, i8, i8, i64, i32, i64, i8, %struct.SDL_Point, %struct.XConfigureEvent, %struct.XConfigureEvent, ptr, i64, i64, i64, i8, i64, ptr, i8, [4 x i64], %struct.SDL_Rect, i64, %struct._XSyncValue, i8, %struct.SDL_Rect, %struct.SDL_DisplayMode, i32, i32, i8, i8, i8, i8, i8, i8, i8, i8, i32, %struct.XPoint, ptr, ptr, i32, i32, i8 }
%struct.XShmSegmentInfo = type { i64, i32, ptr, i32 }
%struct.XConfigureEvent = type { i32, i64, i32, ptr, i64, i64, i32, i32, i32, i32, i32, i64, i32 }
%struct._XSyncValue = type { i32, i32 }
%struct.XPoint = type { i16, i16 }
%struct.SDL_x11Prop = type { ptr, i32, i32, i64 }

@X11_XGetWindowProperty = external global ptr, align 8
@X11_XGetWindowAttributes = external global ptr, align 8
@X11_XFree = external global ptr, align 8
@X11_XInternAtom = external global ptr, align 8
@X11_XScreenNumberOfScreen = external global ptr, align 8
@.str.28 = private unnamed_addr constant [5 x i8] c"%s%d\00", align 1
@.str.29 = private unnamed_addr constant [14 x i8] c"_ICC_PROFILE_\00", align 1
@.str.30 = private unnamed_addr constant [13 x i8] c"_ICC_PROFILE\00", align 1
@.str.31 = private unnamed_addr constant [26 x i8] c"Screen is not calibrated.\00", align 1

; Function Attrs: nounwind uwtable
define internal void @X11_ReadProperty(ptr noundef %0, ptr noundef %1, i64 noundef %2, i64 noundef %3) #0 {
  %5 = alloca ptr, align 8
  %6 = alloca ptr, align 8
  %7 = alloca i64, align 8
  %8 = alloca i64, align 8
  %9 = alloca ptr, align 8
  %10 = alloca i64, align 8
  %11 = alloca i32, align 4
  %12 = alloca i64, align 8
  %13 = alloca i64, align 8
  %14 = alloca i32, align 4
  store ptr %0, ptr %5, align 8
  store ptr %1, ptr %6, align 8
  store i64 %2, ptr %7, align 8
  store i64 %3, ptr %8, align 8
  call void @llvm.lifetime.start.p0(i64 8, ptr %9) #7
  store ptr null, ptr %9, align 8
  call void @llvm.lifetime.start.p0(i64 8, ptr %10) #7
  call void @llvm.lifetime.start.p0(i64 4, ptr %11) #7
  call void @llvm.lifetime.start.p0(i64 8, ptr %12) #7
  call void @llvm.lifetime.start.p0(i64 8, ptr %13) #7
  call void @llvm.lifetime.start.p0(i64 4, ptr %14) #7
  store i32 0, ptr %14, align 4
  br label %15

15:                                               ; preds = %35, %4
  %16 = load ptr, ptr %9, align 8
  %17 = icmp ne ptr %16, null
  br i1 %17, label %18, label %22

18:                                               ; preds = %15
  %19 = load ptr, ptr @X11_XFree, align 8
  %20 = load ptr, ptr %9, align 8
  %21 = call i32 %19(ptr noundef %20)
  br label %22

22:                                               ; preds = %18, %15
  %23 = load ptr, ptr @X11_XGetWindowProperty, align 8
  %24 = load ptr, ptr %6, align 8
  %25 = load i64, ptr %7, align 8
  %26 = load i64, ptr %8, align 8
  %27 = load i32, ptr %14, align 4
  %28 = sext i32 %27 to i64
  %29 = call i32 %23(ptr noundef %24, i64 noundef %25, i64 noundef %26, i64 noundef 0, i64 noundef %28, i32 noundef 0, i64 noundef 0, ptr noundef %10, ptr noundef %11, ptr noundef %12, ptr noundef %13, ptr noundef %9)
  %30 = load i64, ptr %13, align 8
  %31 = load i32, ptr %14, align 4
  %32 = sext i32 %31 to i64
  %33 = add i64 %32, %30
  %34 = trunc i64 %33 to i32
  store i32 %34, ptr %14, align 4
  br label %35

35:                                               ; preds = %22
  %36 = load i64, ptr %13, align 8
  %37 = icmp ne i64 %36, 0
  br i1 %37, label %15, label %38, !llvm.loop !17

38:                                               ; preds = %35
  %39 = load ptr, ptr %9, align 8
  %40 = load ptr, ptr %5, align 8
  %41 = getelementptr inbounds nuw %struct.SDL_x11Prop, ptr %40, i32 0, i32 0
  store ptr %39, ptr %41, align 8
  %42 = load i32, ptr %11, align 4
  %43 = load ptr, ptr %5, align 8
  %44 = getelementptr inbounds nuw %struct.SDL_x11Prop, ptr %43, i32 0, i32 1
  store i32 %42, ptr %44, align 8
  %45 = load i64, ptr %12, align 8
  %46 = trunc i64 %45 to i32
  %47 = load ptr, ptr %5, align 8
  %48 = getelementptr inbounds nuw %struct.SDL_x11Prop, ptr %47, i32 0, i32 2
  store i32 %46, ptr %48, align 4
  %49 = load i64, ptr %10, align 8
  %50 = load ptr, ptr %5, align 8
  %51 = getelementptr inbounds nuw %struct.SDL_x11Prop, ptr %50, i32 0, i32 3
  store i64 %49, ptr %51, align 8
  call void @llvm.lifetime.end.p0(i64 4, ptr %14) #7
  call void @llvm.lifetime.end.p0(i64 8, ptr %13) #7
  call void @llvm.lifetime.end.p0(i64 8, ptr %12) #7
  call void @llvm.lifetime.end.p0(i64 4, ptr %11) #7
  call void @llvm.lifetime.end.p0(i64 8, ptr %10) #7
  call void @llvm.lifetime.end.p0(i64 8, ptr %9) #7
  ret void
}

; Function Attrs: nounwind uwtable
define hidden ptr @X11_GetWindowICCProfile(ptr noundef %0, ptr noundef %1, ptr noundef %2) #0 {
  %4 = alloca ptr, align 8
  %5 = alloca ptr, align 8
  %6 = alloca ptr, align 8
  %7 = alloca ptr, align 8
  %8 = alloca ptr, align 8
  %9 = alloca ptr, align 8
  %10 = alloca %struct.XWindowAttributes, align 8
  %11 = alloca i64, align 8
  %12 = alloca [26 x i8], align 16
  %13 = alloca ptr, align 8
  %14 = alloca ptr, align 8
  %15 = alloca i32, align 4
  %16 = alloca i64, align 8
  %17 = alloca %struct.SDL_x11Prop, align 8
  %18 = alloca i32, align 4
  store ptr %0, ptr %5, align 8
  store ptr %1, ptr %6, align 8
  store ptr %2, ptr %7, align 8
  call void @llvm.lifetime.start.p0(i64 8, ptr %8) #7
  %19 = load ptr, ptr %6, align 8
  %20 = getelementptr inbounds nuw %struct.SDL_Window, ptr %19, i32 0, i32 59
  %21 = load ptr, ptr %20, align 8
  store ptr %21, ptr %8, align 8
  call void @llvm.lifetime.start.p0(i64 8, ptr %9) #7
  %22 = load ptr, ptr %8, align 8
  %23 = getelementptr inbounds nuw %struct.SDL_WindowData, ptr %22, i32 0, i32 24
  %24 = load ptr, ptr %23, align 8
  %25 = getelementptr inbounds nuw %struct.SDL_VideoData, ptr %24, i32 0, i32 0
  %26 = load ptr, ptr %25, align 8
  store ptr %26, ptr %9, align 8
  call void @llvm.lifetime.start.p0(i64 136, ptr %10) #7
  call void @llvm.lifetime.start.p0(i64 8, ptr %11) #7
  call void @llvm.lifetime.start.p0(i64 26, ptr %12) #7
  call void @llvm.lifetime.start.p0(i64 8, ptr %13) #7
  store ptr null, ptr %13, align 8
  call void @llvm.lifetime.start.p0(i64 8, ptr %14) #7
  call void @llvm.lifetime.start.p0(i64 4, ptr %15) #7
  call void @llvm.lifetime.start.p0(i64 8, ptr %16) #7
  call void @llvm.lifetime.start.p0(i64 24, ptr %17) #7
  %27 = load ptr, ptr @X11_XGetWindowAttributes, align 8
  %28 = load ptr, ptr %9, align 8
  %29 = load ptr, ptr %8, align 8
  %30 = getelementptr inbounds nuw %struct.SDL_WindowData, ptr %29, i32 0, i32 1
  %31 = load i64, ptr %30, align 8
  %32 = call i32 %27(ptr noundef %28, i64 noundef %31, ptr noundef %10)
  %33 = load ptr, ptr @X11_XScreenNumberOfScreen, align 8
  %34 = getelementptr inbounds nuw %struct.XWindowAttributes, ptr %10, i32 0, i32 22
  %35 = load ptr, ptr %34, align 8
  %36 = call i32 %33(ptr noundef %35)
  %37 = icmp sgt i32 %36, 0
  br i1 %37, label %38, label %45

38:                                               ; preds = %3
  %39 = getelementptr inbounds [26 x i8], ptr %12, i64 0, i64 0
  %40 = load ptr, ptr @X11_XScreenNumberOfScreen, align 8
  %41 = getelementptr inbounds nuw %struct.XWindowAttributes, ptr %10, i32 0, i32 22
  %42 = load ptr, ptr %41, align 8
  %43 = call i32 %40(ptr noundef %42)
  %44 = call i32 (ptr, i64, ptr, ...) @SDL_snprintf_REAL(ptr noundef %39, i64 noundef 26, ptr noundef @.str.28, ptr noundef @.str.29, i32 noundef %43)
  br label %48

45:                                               ; preds = %3
  %46 = getelementptr inbounds [26 x i8], ptr %12, i64 0, i64 0
  %47 = call i64 @SDL_strlcpy_REAL(ptr noundef %46, ptr noundef @.str.30, i64 noundef 13)
  br label %48

48:                                               ; preds = %45, %38
  %49 = load ptr, ptr @X11_XGetWindowAttributes, align 8
  %50 = load ptr, ptr %9, align 8
  %51 = getelementptr inbounds nuw %struct.XWindowAttributes, ptr %10, i32 0, i32 22
  %52 = load ptr, ptr %51, align 8
  %53 = getelementptr inbounds nuw %struct.Screen, ptr %52, i32 0, i32 2
  %54 = load i64, ptr %53, align 8
  %55 = call i32 %49(ptr noundef %50, i64 noundef %54, ptr noundef %10)
  %56 = load ptr, ptr @X11_XInternAtom, align 8
  %57 = load ptr, ptr %9, align 8
  %58 = getelementptr inbounds [26 x i8], ptr %12, i64 0, i64 0
  %59 = call i64 %56(ptr noundef %57, ptr noundef %58, i32 noundef 1)
  store i64 %59, ptr %11, align 8
  %60 = load i64, ptr %11, align 8
  %61 = icmp eq i64 %60, 0
  br i1 %61, label %62, label %64

62:                                               ; preds = %48
  %63 = call zeroext i1 (ptr, ...) @SDL_SetError_REAL(ptr noundef @.str.31)
  store ptr null, ptr %4, align 8
  store i32 1, ptr %18, align 4
  br label %99

64:                                               ; preds = %48
  %65 = load ptr, ptr %9, align 8
  %66 = getelementptr inbounds nuw %struct.XWindowAttributes, ptr %10, i32 0, i32 22
  %67 = load ptr, ptr %66, align 8
  %68 = getelementptr inbounds nuw %struct.Screen, ptr %67, i32 0, i32 2
  %69 = load i64, ptr %68, align 8
  %70 = load i64, ptr %11, align 8
  call void @X11_ReadProperty(ptr noundef %17, ptr noundef %65, i64 noundef %69, i64 noundef %70)
  %71 = getelementptr inbounds nuw %struct.SDL_x11Prop, ptr %17, i32 0, i32 1
  %72 = load i32, ptr %71, align 8
  store i32 %72, ptr %15, align 4
  %73 = getelementptr inbounds nuw %struct.SDL_x11Prop, ptr %17, i32 0, i32 2
  %74 = load i32, ptr %73, align 4
  %75 = sext i32 %74 to i64
  store i64 %75, ptr %16, align 8
  %76 = getelementptr inbounds nuw %struct.SDL_x11Prop, ptr %17, i32 0, i32 0
  %77 = load ptr, ptr %76, align 8
  store ptr %77, ptr %14, align 8
  %78 = load i32, ptr %15, align 4
  %79 = sext i32 %78 to i64
  %80 = icmp eq i64 %79, 0
  br i1 %80, label %81, label %83

81:                                               ; preds = %64
  %82 = call zeroext i1 (ptr, ...) @SDL_SetError_REAL(ptr noundef @.str.31)
  store ptr null, ptr %4, align 8
  store i32 1, ptr %18, align 4
  br label %99

83:                                               ; preds = %64
  %84 = load i64, ptr %16, align 8
  %85 = call noalias ptr @SDL_malloc_REAL(i64 noundef %84)
  store ptr %85, ptr %13, align 8
  %86 = load ptr, ptr %13, align 8
  %87 = icmp ne ptr %86, null
  br i1 %87, label %89, label %88

88:                                               ; preds = %83
  store ptr null, ptr %4, align 8
  store i32 1, ptr %18, align 4
  br label %99

89:                                               ; preds = %83
  %90 = load ptr, ptr %13, align 8
  %91 = load ptr, ptr %14, align 8
  %92 = load i64, ptr %16, align 8
  call void @llvm.memcpy.p0.p0.i64(ptr align 1 %90, ptr align 1 %91, i64 %92, i1 false)
  %93 = load i64, ptr %16, align 8
  %94 = load ptr, ptr %7, align 8
  store i64 %93, ptr %94, align 8
  %95 = load ptr, ptr @X11_XFree, align 8
  %96 = load ptr, ptr %14, align 8
  %97 = call i32 %95(ptr noundef %96)
  %98 = load ptr, ptr %13, align 8
  store ptr %98, ptr %4, align 8
  store i32 1, ptr %18, align 4
  br label %99

99:                                               ; preds = %89, %88, %81, %62
  call void @llvm.lifetime.end.p0(i64 24, ptr %17) #7
  call void @llvm.lifetime.end.p0(i64 8, ptr %16) #7
  call void @llvm.lifetime.end.p0(i64 4, ptr %15) #7
  call void @llvm.lifetime.end.p0(i64 8, ptr %14) #7
  call void @llvm.lifetime.end.p0(i64 8, ptr %13) #7
  call void @llvm.lifetime.end.p0(i64 26, ptr %12) #7
  call void @llvm.lifetime.end.p0(i64 8, ptr %11) #7
  call void @llvm.lifetime.end.p0(i64 136, ptr %10) #7
  call void @llvm.lifetime.end.p0(i64 8, ptr %9) #7
  call void @llvm.lifetime.end.p0(i64 8, ptr %8) #7
  %100 = load ptr, ptr %4, align 8
  ret ptr %100
}