; Function Attrs: nounwind uwtable
define hidden ptr @X11_GetWindowICCProfile(ptr noundef readnone captures(none) %0, ptr noundef readonly captures(none) %1, ptr noundef writeonly captures(none) %2) local_unnamed_addr #0 {
  %4 = alloca ptr, align 8
  %5 = alloca i64, align 8
  %6 = alloca i32, align 4
  %7 = alloca i64, align 8
  %8 = alloca i64, align 8
  %9 = alloca %struct.XWindowAttributes, align 8
  %10 = alloca [26 x i8], align 16
  %11 = getelementptr inbounds nuw i8, ptr %1, i64 392
  %12 = load ptr, ptr %11, align 8
  %13 = getelementptr inbounds nuw i8, ptr %12, i64 336
  %14 = load ptr, ptr %13, align 8
  %15 = load ptr, ptr %14, align 8
  call void @llvm.lifetime.start.p0(i64 136, ptr nonnull %9) #12
  call void @llvm.lifetime.start.p0(i64 26, ptr nonnull %10) #12
  %16 = load ptr, ptr @X11_XGetWindowAttributes, align 8
  %17 = getelementptr inbounds nuw i8, ptr %12, i64 8
  %18 = load i64, ptr %17, align 8
  %19 = call i32 %16(ptr noundef %15, i64 noundef %18, ptr noundef nonnull %9) #12
  %20 = load ptr, ptr @X11_XScreenNumberOfScreen, align 8
  %21 = getelementptr inbounds nuw i8, ptr %9, i64 128
  %22 = load ptr, ptr %21, align 8
  %23 = call i32 %20(ptr noundef %22) #12
  %24 = icmp sgt i32 %23, 0
  br i1 %24, label %25, label %30

25:                                               ; preds = %3
  %26 = load ptr, ptr @X11_XScreenNumberOfScreen, align 8
  %27 = load ptr, ptr %21, align 8
  %28 = call i32 %26(ptr noundef %27) #12
  %29 = call i32 (ptr, i64, ptr, ...) @SDL_snprintf_REAL(ptr noundef nonnull %10, i64 noundef 26, ptr noundef nonnull @.str.28, ptr noundef nonnull @.str.29, i32 noundef %28) #12
  br label %32

30:                                               ; preds = %3
  %31 = call i64 @SDL_strlcpy_REAL(ptr noundef nonnull %10, ptr noundef nonnull @.str.30, i64 noundef 13) #12
  br label %32

32:                                               ; preds = %30, %25
  %33 = load ptr, ptr @X11_XGetWindowAttributes, align 8
  %34 = load ptr, ptr %21, align 8
  %35 = getelementptr inbounds nuw i8, ptr %34, i64 16
  %36 = load i64, ptr %35, align 8
  %37 = call i32 %33(ptr noundef %15, i64 noundef %36, ptr noundef nonnull %9) #12
  %38 = load ptr, ptr @X11_XInternAtom, align 8
  %39 = call i64 %38(ptr noundef %15, ptr noundef nonnull %10, i32 noundef 1) #12
  %40 = icmp eq i64 %39, 0
  br i1 %40, label %41, label %43

41:                                               ; preds = %32
  %42 = call zeroext i1 (ptr, ...) @SDL_SetError_REAL(ptr noundef nonnull @.str.31) #12
  br label %70

43:                                               ; preds = %32
  %44 = load ptr, ptr %21, align 8
  %45 = getelementptr inbounds nuw i8, ptr %44, i64 16
  %46 = load i64, ptr %45, align 8
  call void @llvm.lifetime.start.p0(i64 8, ptr nonnull %4) #12
  store ptr null, ptr %4, align 8
  call void @llvm.lifetime.start.p0(i64 8, ptr nonnull %5) #12
  call void @llvm.lifetime.start.p0(i64 4, ptr nonnull %6) #12
  call void @llvm.lifetime.start.p0(i64 8, ptr nonnull %7) #12
  call void @llvm.lifetime.start.p0(i64 8, ptr nonnull %8) #12
  br label %48

thread-pre-split.i:                               ; preds = %53
  %47 = add i64 %57, %55
  %.pr.i = load ptr, ptr %4, align 8
  br label %48

48:                                               ; preds = %thread-pre-split.i, %43
  %49 = phi ptr [ %.pr.i, %thread-pre-split.i ], [ null, %43 ]
  %.0.i = phi i64 [ %47, %thread-pre-split.i ], [ 0, %43 ]
  %.not.i = icmp eq ptr %49, null
  br i1 %.not.i, label %53, label %50

50:                                               ; preds = %48
  %51 = load ptr, ptr @X11_XFree, align 8
  %52 = call i32 %51(ptr noundef nonnull %49) #12
  br label %53

53:                                               ; preds = %50, %48
  %54 = load ptr, ptr @X11_XGetWindowProperty, align 8
  %sext.i = shl i64 %.0.i, 32
  %55 = ashr exact i64 %sext.i, 32
  %56 = call i32 %54(ptr noundef %15, i64 noundef %46, i64 noundef range(i64 1, 0) %39, i64 noundef 0, i64 noundef %55, i32 noundef 0, i64 noundef 0, ptr noundef nonnull %5, ptr noundef nonnull %6, ptr noundef nonnull %7, ptr noundef nonnull %8, ptr noundef nonnull %4) #12
  %57 = load i64, ptr %8, align 8
  %.not9.i = icmp eq i64 %57, 0
  br i1 %.not9.i, label %X11_ReadProperty.exit, label %thread-pre-split.i, !llvm.loop !18

X11_ReadProperty.exit:                            ; preds = %53
  %58 = load ptr, ptr %4, align 8
  %59 = load i32, ptr %6, align 4
  %60 = load i64, ptr %7, align 8
  call void @llvm.lifetime.end.p0(i64 8, ptr nonnull %8) #12
  call void @llvm.lifetime.end.p0(i64 8, ptr nonnull %7) #12
  call void @llvm.lifetime.end.p0(i64 4, ptr nonnull %6) #12
  call void @llvm.lifetime.end.p0(i64 8, ptr nonnull %5) #12
  call void @llvm.lifetime.end.p0(i64 8, ptr nonnull %4) #12
  %sext = shl i64 %60, 32
  %61 = ashr exact i64 %sext, 32
  %62 = icmp eq i32 %59, 0
  br i1 %62, label %63, label %65

63:                                               ; preds = %X11_ReadProperty.exit
  %64 = call zeroext i1 (ptr, ...) @SDL_SetError_REAL(ptr noundef nonnull @.str.31) #12
  br label %70

65:                                               ; preds = %X11_ReadProperty.exit
  %66 = call noalias ptr @SDL_malloc_REAL(i64 noundef %61) #12
  %.not = icmp eq ptr %66, null
  br i1 %.not, label %70, label %67

67:                                               ; preds = %65
  call void @llvm.memcpy.p0.p0.i64(ptr nonnull align 1 %66, ptr align 1 %58, i64 %61, i1 false)
  store i64 %61, ptr %2, align 8
  %68 = load ptr, ptr @X11_XFree, align 8
  %69 = call i32 %68(ptr noundef %58) #12
  br label %70

70:                                               ; preds = %65, %67, %63, %41
  %.0 = phi ptr [ null, %41 ], [ null, %63 ], [ %66, %67 ], [ null, %65 ]
  call void @llvm.lifetime.end.p0(i64 26, ptr nonnull %10) #12
  call void @llvm.lifetime.end.p0(i64 136, ptr nonnull %9) #12
  ret ptr %.0
}